; Function Attrs: mustprogress uwtable
define noundef i32 @_ZNK18FilterEmbreePlugin13postConditionEPK7QAction(ptr noundef nonnull align 8 dereferenceable(80) %0, ptr noundef %1) unnamed_addr #9 align 2 {
  %3 = getelementptr inbounds i8, ptr %0, i64 16
  %4 = load ptr, ptr %3, align 8
  %5 = getelementptr inbounds i8, ptr %4, i64 144
  %6 = load ptr, ptr %5, align 8
  %7 = tail call noundef i32 %6(ptr noundef nonnull align 8 dereferenceable(64) %3, ptr noundef %1)
  %switch.selectcmp = icmp eq i32 %7, 3
  %switch.select = select i1 %switch.selectcmp, i32 33554432, i32 65552
  %switch.selectcmp2 = icmp eq i32 %7, 4
  %switch.select3 = select i1 %switch.selectcmp2, i32 1126071271, i32 %switch.select
  ret i32 %switch.select3
}